target datalayout = "e-m:e-p270:32:32-p271:32:32-p272:64:64-i64:64-i128:128-f80:128-n8:16:32:64-S128"
target triple = "x86_64-pc-linux-gnu"

%struct.__va_list_tag = type { i32, i32, ptr, ptr }

@hf_mswsp_int32array_value = internal global i32 0, align 4
@ett_Array = internal global i32 0, align 4
@.str.1368 = private unnamed_addr constant [12 x i8] c"%s[%u] = %u\00", align 1

; Function Attrs: null_pointer_is_valid sspstrong uwtable
define internal i32 @parse_UInt32Array(ptr noundef %0, i32 noundef %1, ptr noundef %2, i32 noundef %3, ptr noundef %4, ptr noundef %5, ...) #0 {
  %7 = alloca ptr, align 8
  %8 = alloca i32, align 4
  %9 = alloca ptr, align 8
  %10 = alloca i32, align 4
  %11 = alloca ptr, align 8
  %12 = alloca ptr, align 8
  %13 = alloca i32, align 4
  %14 = alloca i32, align 4
  %15 = alloca ptr, align 8
  %16 = alloca ptr, align 8
  %17 = alloca ptr, align 8
  %18 = alloca [1 x %struct.__va_list_tag], align 16
  store ptr %0, ptr %7, align 8
  store i32 %1, ptr %8, align 4
  store ptr %2, ptr %9, align 8
  store i32 %3, ptr %10, align 4
  store ptr %4, ptr %11, align 8
  store ptr %5, ptr %12, align 8
  call void @llvm.lifetime.start.p0(i64 4, ptr %13) #11
  call void @llvm.lifetime.start.p0(i64 4, ptr %14) #11
  call void @llvm.lifetime.start.p0(i64 8, ptr %15) #11
  call void @llvm.lifetime.start.p0(i64 8, ptr %16) #11
  call void @llvm.lifetime.start.p0(i64 8, ptr %17) #11
  call void @llvm.lifetime.start.p0(i64 24, ptr %18) #11
  %19 = getelementptr inbounds [1 x %struct.__va_list_tag], ptr %18, i64 0, i64 0
  call void @llvm.va_start.p0(ptr %19)
  %20 = call ptr @wmem_packet_scope()
  %21 = load ptr, ptr %12, align 8
  %22 = getelementptr inbounds [1 x %struct.__va_list_tag], ptr %18, i64 0, i64 0
  %23 = call noalias ptr @wmem_strdup_vprintf(ptr noundef %20, ptr noundef %21, ptr noundef %22)
  store ptr %23, ptr %17, align 8
  %24 = getelementptr inbounds [1 x %struct.__va_list_tag], ptr %18, i64 0, i64 0
  call void @llvm.va_end.p0(ptr %24)
  %25 = load ptr, ptr %9, align 8
  %26 = load ptr, ptr %7, align 8
  %27 = load i32, ptr %8, align 4
  %28 = load i32, ptr @ett_Array, align 4
  %29 = load ptr, ptr %17, align 8
  %30 = call ptr @proto_tree_add_subtree(ptr noundef %25, ptr noundef %26, i32 noundef %27, i32 noundef 0, i32 noundef %28, ptr noundef %16, ptr noundef %29)
  store ptr %30, ptr %15, align 8
  store i32 0, ptr %14, align 4
  br label %31

31:                                               ; preds = %50, %6
  %32 = load i32, ptr %14, align 4
  %33 = load i32, ptr %10, align 4
  %34 = icmp ult i32 %32, %33
  br i1 %34, label %35, label %53

35:                                               ; preds = %31
  %36 = load ptr, ptr %7, align 8
  %37 = load i32, ptr %8, align 4
  %38 = call i32 @tvb_get_letohl(ptr noundef %36, i32 noundef %37)
  store i32 %38, ptr %13, align 4
  %39 = load ptr, ptr %15, align 8
  %40 = load i32, ptr @hf_mswsp_int32array_value, align 4
  %41 = load ptr, ptr %7, align 8
  %42 = load i32, ptr %8, align 4
  %43 = load i32, ptr %13, align 4
  %44 = load ptr, ptr %11, align 8
  %45 = load i32, ptr %14, align 4
  %46 = load i32, ptr %13, align 4
  %47 = call ptr (ptr, i32, ptr, i32, i32, i32, ptr, ...) @proto_tree_add_uint_format(ptr noundef %39, i32 noundef %40, ptr noundef %41, i32 noundef %42, i32 noundef 4, i32 noundef %43, ptr noundef @.str.1368, ptr noundef %44, i32 noundef %45, i32 noundef %46)
  %48 = load i32, ptr %8, align 4
  %49 = add i32 %48, 4
  store i32 %49, ptr %8, align 4
  br label %50

50:                                               ; preds = %35
  %51 = load i32, ptr %14, align 4
  %52 = add i32 %51, 1
  store i32 %52, ptr %14, align 4
  br label %31, !llvm.loop !33

53:                                               ; preds = %31
  %54 = load ptr, ptr %16, align 8
  %55 = load ptr, ptr %7, align 8
  %56 = load i32, ptr %8, align 4
  call void @proto_item_set_end(ptr noundef %54, ptr noundef %55, i32 noundef %56)
  %57 = load i32, ptr %8, align 4
  call void @llvm.lifetime.end.p0(i64 24, ptr %18) #11
  call void @llvm.lifetime.end.p0(i64 8, ptr %17) #11
  call void @llvm.lifetime.end.p0(i64 8, ptr %16) #11
  call void @llvm.lifetime.end.p0(i64 8, ptr %15) #11
  call void @llvm.lifetime.end.p0(i64 4, ptr %14) #11
  call void @llvm.lifetime.end.p0(i64 4, ptr %13) #11
  ret i32 %57
}