; Function Attrs: null_pointer_is_valid sspstrong uwtable
define internal noundef i32 @parse_UInt32Array(ptr noundef %0, i32 noundef %1, ptr noundef %2, i32 noundef %3, ptr noundef %4, ptr noundef %5, ...) unnamed_addr #0 {
  %7 = alloca ptr, align 8
  %8 = alloca [1 x %struct.__va_list_tag], align 16
  call void @llvm.lifetime.start.p0(i64 8, ptr nonnull %7) #11
  call void @llvm.lifetime.start.p0(i64 24, ptr nonnull %8) #11
  call void @llvm.va_start.p0(ptr nonnull %8)
  %9 = call ptr @wmem_packet_scope()
  %10 = call noalias ptr @wmem_strdup_vprintf(ptr noundef %9, ptr noundef %5, ptr noundef nonnull %8)
  call void @llvm.va_end.p0(ptr nonnull %8)
  %11 = load i32, ptr @ett_Array, align 4
  %12 = call ptr @proto_tree_add_subtree(ptr noundef %2, ptr noundef %0, i32 noundef %1, i32 noundef 0, i32 noundef %11, ptr noundef nonnull %7, ptr noundef %10)
  %.not = icmp eq i32 %3, 0
  br i1 %.not, label %._crit_edge, label %.lr.ph

.lr.ph:                                           ; preds = %6, %.lr.ph
  %.022 = phi i32 [ %16, %.lr.ph ], [ %1, %6 ]
  %.02021 = phi i32 [ %17, %.lr.ph ], [ 0, %6 ]
  %13 = call i32 @tvb_get_letohl(ptr noundef %0, i32 noundef %.022)
  %14 = load i32, ptr @hf_mswsp_int32array_value, align 4
  %15 = call ptr (ptr, i32, ptr, i32, i32, i32, ptr, ...) @proto_tree_add_uint_format(ptr noundef %12, i32 noundef %14, ptr noundef %0, i32 noundef %.022, i32 noundef 4, i32 noundef %13, ptr noundef nonnull @.str.1368, ptr noundef %4, i32 noundef %.02021, i32 noundef %13)
  %16 = add i32 %.022, 4
  %17 = add nuw i32 %.02021, 1
  %exitcond.not = icmp eq i32 %17, %3
  br i1 %exitcond.not, label %._crit_edge, label %.lr.ph, !llvm.loop !34

._crit_edge:                                      ; preds = %.lr.ph, %6
  %.0.lcssa = phi i32 [ %1, %6 ], [ %16, %.lr.ph ]
  %18 = load ptr, ptr %7, align 8
  call void @proto_item_set_end(ptr noundef %18, ptr noundef %0, i32 noundef %.0.lcssa)
  call void @llvm.lifetime.end.p0(i64 24, ptr nonnull %8) #11
  call void @llvm.lifetime.end.p0(i64 8, ptr nonnull %7) #11
  ret i32 %.0.lcssa
}